target datalayout = "e-m:e-p270:32:32-p271:32:32-p272:64:64-i64:64-i128:128-f80:128-n8:16:32:64-S128"
target triple = "x86_64-pc-linux-gnu"

%"class.icu_77::UObject" = type { ptr }
%"class.icu_77::UnicodeString" = type { %"class.icu_77::Replaceable", %"union.icu_77::UnicodeString::StackBufferOrFields" }
%"class.icu_77::Replaceable" = type { %"class.icu_77::UObject" }
%"union.icu_77::UnicodeString::StackBufferOrFields" = type { %struct.anon.0, [32 x i8] }
%struct.anon.0 = type { i16, i32, i32, ptr }
%"class.icu_77::Formattable" = type { %"class.icu_77::UObject", %union.anon, ptr, ptr, i32, %"class.icu_77::UnicodeString" }
%union.anon = type { %struct.anon.1 }
%struct.anon.1 = type { ptr, i32 }
%"class.icu_77::ParsePosition" = type { %"class.icu_77::UObject", i32, i32 }
%"class.icu_77::LocalPointer.4" = type { %"class.icu_77::LocalPointerBase.5" }
%"class.icu_77::LocalPointerBase.5" = type { ptr }
%"class.icu_77::ConstChar16Ptr" = type { ptr }

; Function Attrs: mustprogress nounwind uwtable
define linkonce_odr void @_ZN6icu_7716LocalPointerBaseINS_14CurrencyAmountEED2Ev(ptr noundef nonnull align 8 dereferenceable(8) %0) unnamed_addr #0 comdat align 2 {
  %2 = alloca ptr, align 8
  store ptr %0, ptr %2, align 8, !tbaa !114
  ret void
}

; Function Attrs: mustprogress nounwind uwtable
define linkonce_odr void @_ZN6icu_7716LocalPointerBaseINS_14CurrencyAmountEEC2EPS1_(ptr noundef nonnull align 8 dereferenceable(8) %0, ptr noundef %1) unnamed_addr #0 comdat align 2 {
  %3 = alloca ptr, align 8
  %4 = alloca ptr, align 8
  store ptr %0, ptr %3, align 8, !tbaa !114
  store ptr %1, ptr %4, align 8, !tbaa !81
  %5 = load ptr, ptr %3, align 8
  %6 = getelementptr inbounds nuw %"class.icu_77::LocalPointerBase.5", ptr %5, i32 0, i32 0
  %7 = load ptr, ptr %4, align 8, !tbaa !81
  store ptr %7, ptr %6, align 8, !tbaa !116
  ret void
}

; Function Attrs: mustprogress nounwind uwtable
define linkonce_odr noundef ptr @_ZN6icu_7716LocalPointerBaseINS_14CurrencyAmountEE6orphanEv(ptr noundef nonnull align 8 dereferenceable(8) %0) #0 comdat align 2 {
  %2 = alloca ptr, align 8
  %3 = alloca ptr, align 8
  store ptr %0, ptr %2, align 8, !tbaa !114
  %4 = load ptr, ptr %2, align 8
  call void @llvm.lifetime.start.p0(i64 8, ptr %3) #15
  %5 = getelementptr inbounds nuw %"class.icu_77::LocalPointerBase.5", ptr %4, i32 0, i32 0
  %6 = load ptr, ptr %5, align 8, !tbaa !116
  store ptr %6, ptr %3, align 8, !tbaa !81
  %7 = getelementptr inbounds nuw %"class.icu_77::LocalPointerBase.5", ptr %4, i32 0, i32 0
  store ptr null, ptr %7, align 8, !tbaa !116
  %8 = load ptr, ptr %3, align 8, !tbaa !81
  call void @llvm.lifetime.end.p0(i64 8, ptr %3) #15
  ret ptr %8
}

; Function Attrs: mustprogress nounwind uwtable
define linkonce_odr void @_ZN6icu_7712LocalPointerINS_14CurrencyAmountEED2Ev(ptr noundef nonnull align 8 dereferenceable(8) %0) unnamed_addr #0 comdat align 2 {
  %2 = alloca ptr, align 8
  store ptr %0, ptr %2, align 8, !tbaa !111
  %3 = load ptr, ptr %2, align 8
  %4 = getelementptr inbounds nuw %"class.icu_77::LocalPointerBase.5", ptr %3, i32 0, i32 0
  %5 = load ptr, ptr %4, align 8, !tbaa !116
  %6 = icmp eq ptr %5, null
  br i1 %6, label %11, label %7

7:                                                ; preds = %1
  %8 = load ptr, ptr %5, align 8, !tbaa !30
  %9 = getelementptr inbounds ptr, ptr %8, i64 1
  %10 = load ptr, ptr %9, align 8
  call void %10(ptr noundef nonnull align 8 dereferenceable(128) %5) #15
  br label %11

11:                                               ; preds = %7, %1
  call void @_ZN6icu_7716LocalPointerBaseINS_14CurrencyAmountEED2Ev(ptr noundef nonnull align 8 dereferenceable(8) %3) #15
  ret void
}

; Function Attrs: inlinehint mustprogress nounwind uwtable
define linkonce_odr void @_ZN6icu_7713ParsePosition8setIndexEi(ptr noundef nonnull align 8 dereferenceable(16) %0, i32 noundef %1) #2 comdat align 2 {
  %3 = alloca ptr, align 8
  %4 = alloca i32, align 4
  store ptr %0, ptr %3, align 8, !tbaa !98
  store i32 %1, ptr %4, align 4, !tbaa !14
  %5 = load ptr, ptr %3, align 8
  %6 = load i32, ptr %4, align 4, !tbaa !14
  %7 = getelementptr inbounds nuw %"class.icu_77::ParsePosition", ptr %5, i32 0, i32 1
  store i32 %6, ptr %7, align 8, !tbaa !104
  ret void
}

; Function Attrs: inlinehint mustprogress nounwind uwtable
define internal noundef signext i8 @_ZL9U_FAILURE10UErrorCode(i32 noundef %0) #2 {
  %2 = alloca i32, align 4
  store i32 %0, ptr %2, align 4, !tbaa !15
  %3 = load i32, ptr %2, align 4, !tbaa !15
  %4 = icmp sgt i32 %3, 0
  %5 = zext i1 %4 to i8
  ret i8 %5
}

; Function Attrs: inlinehint mustprogress nounwind uwtable
define linkonce_odr void @_ZN6icu_7714ConstChar16PtrD2Ev(ptr noundef nonnull align 8 dereferenceable(8) %0) unnamed_addr #2 comdat align 2 {
  %2 = alloca ptr, align 8
  store ptr %0, ptr %2, align 8, !tbaa !107
  %3 = load ptr, ptr %2, align 8
  %4 = getelementptr inbounds nuw %"class.icu_77::ConstChar16Ptr", ptr %3, i32 0, i32 0
  %5 = load ptr, ptr %4, align 8, !tbaa !109
  call void asm sideeffect "", "rm,~{memory},~{dirflag},~{fpsr},~{flags}"(ptr %5) #15, !srcloc !113
  ret void
}

; Function Attrs: mustprogress uwtable
define linkonce_odr void @_ZN6icu_7712LocalPointerINS_14CurrencyAmountEEC2EPS1_R10UErrorCode(ptr noundef nonnull align 8 dereferenceable(8) %0, ptr noundef %1, ptr noundef nonnull align 4 dereferenceable(4) %2) unnamed_addr #1 comdat align 2 {
  %4 = alloca ptr, align 8
  %5 = alloca ptr, align 8
  %6 = alloca ptr, align 8
  store ptr %0, ptr %4, align 8, !tbaa !111
  store ptr %1, ptr %5, align 8, !tbaa !81
  store ptr %2, ptr %6, align 8, !tbaa !22
  %7 = load ptr, ptr %4, align 8
  %8 = load ptr, ptr %5, align 8, !tbaa !81
  call void @_ZN6icu_7716LocalPointerBaseINS_14CurrencyAmountEEC2EPS1_(ptr noundef nonnull align 8 dereferenceable(8) %7, ptr noundef %8)
  %9 = load ptr, ptr %5, align 8, !tbaa !81
  %10 = icmp eq ptr %9, null
  br i1 %10, label %11, label %18

11:                                               ; preds = %3
  %12 = load ptr, ptr %6, align 8, !tbaa !22
  %13 = load i32, ptr %12, align 4, !tbaa !15
  %14 = call noundef signext i8 @_ZL9U_SUCCESS10UErrorCode(i32 noundef %13)
  %15 = icmp ne i8 %14, 0
  br i1 %15, label %16, label %18

16:                                               ; preds = %11
  %17 = load ptr, ptr %6, align 8, !tbaa !22
  store i32 7, ptr %17, align 4, !tbaa !15
  br label %18

18:                                               ; preds = %16, %11, %3
  ret void
}

; Function Attrs: inlinehint mustprogress nounwind uwtable
define linkonce_odr void @_ZN6icu_7714ConstChar16PtrC2EPKDs(ptr noundef nonnull align 8 dereferenceable(8) %0, ptr noundef %1) unnamed_addr #2 comdat align 2 {
  %3 = alloca ptr, align 8
  %4 = alloca ptr, align 8
  store ptr %0, ptr %3, align 8, !tbaa !107
  store ptr %1, ptr %4, align 8, !tbaa !87
  %5 = load ptr, ptr %3, align 8
  %6 = getelementptr inbounds nuw %"class.icu_77::ConstChar16Ptr", ptr %5, i32 0, i32 0
  %7 = load ptr, ptr %4, align 8, !tbaa !87
  store ptr %7, ptr %6, align 8, !tbaa !109
  ret void
}

; Function Attrs: inlinehint mustprogress nounwind uwtable
define internal noundef signext i8 @_ZL9U_SUCCESS10UErrorCode(i32 noundef %0) #2 {
  %2 = alloca i32, align 4
  store i32 %0, ptr %2, align 4, !tbaa !15
  %3 = load i32, ptr %2, align 4, !tbaa !15
  %4 = icmp sle i32 %3, 0
  %5 = zext i1 %4 to i8
  ret i8 %5
}

; Function Attrs: inlinehint mustprogress nounwind uwtable
define linkonce_odr noundef i32 @_ZNK6icu_7713ParsePosition8getIndexEv(ptr noundef nonnull align 8 dereferenceable(16) %0) #2 comdat align 2 {
  %2 = alloca ptr, align 8
  store ptr %0, ptr %2, align 8, !tbaa !98
  %3 = load ptr, ptr %2, align 8
  %4 = getelementptr inbounds nuw %"class.icu_77::ParsePosition", ptr %3, i32 0, i32 1
  %5 = load i32, ptr %4, align 8, !tbaa !104
  ret i32 %5
}

; Function Attrs: mustprogress uwtable
define noundef ptr @_ZNK6icu_7712NumberFormat13parseCurrencyERKNS_13UnicodeStringERNS_13ParsePositionE(ptr noundef nonnull align 8 dereferenceable(60) %0, ptr noundef nonnull align 8 dereferenceable(64) %1, ptr noundef nonnull align 8 dereferenceable(16) %2) unnamed_addr #1 align 2 personality ptr @__gxx_personality_v0 {
  %4 = alloca ptr, align 8
  %5 = alloca ptr, align 8
  %6 = alloca ptr, align 8
  %7 = alloca ptr, align 8
  %8 = alloca %"class.icu_77::Formattable", align 8
  %9 = alloca i32, align 4
  %10 = alloca ptr, align 8
  %11 = alloca i32, align 4
  %12 = alloca [4 x i16], align 2
  %13 = alloca i32, align 4
  %14 = alloca %"class.icu_77::LocalPointer.4", align 8
  %15 = alloca ptr, align 8
  %16 = alloca i1, align 1
  %17 = alloca %"class.icu_77::ConstChar16Ptr", align 8
  %18 = alloca i1, align 1
  %19 = alloca i32, align 4
  store ptr %0, ptr %5, align 8, !tbaa !40
  store ptr %1, ptr %6, align 8, !tbaa !38
  store ptr %2, ptr %7, align 8, !tbaa !98
  %20 = load ptr, ptr %5, align 8
  call void @llvm.lifetime.start.p0(i64 112, ptr %8) #15
  call void @_ZN6icu_7711FormattableC1Ev(ptr noundef nonnull align 8 dereferenceable(112) %8)
  call void @llvm.lifetime.start.p0(i64 4, ptr %9) #15
  %21 = load ptr, ptr %7, align 8, !tbaa !98
  %22 = invoke noundef i32 @_ZNK6icu_7713ParsePosition8getIndexEv(ptr noundef nonnull align 8 dereferenceable(16) %21)
          to label %23 unwind label %66

23:                                               ; preds = %3
  store i32 %22, ptr %9, align 4, !tbaa !14
  %24 = load ptr, ptr %6, align 8, !tbaa !38
  %25 = load ptr, ptr %7, align 8, !tbaa !98
  %26 = load ptr, ptr %20, align 8, !tbaa !30
  %27 = getelementptr inbounds ptr, ptr %26, i64 20
  %28 = load ptr, ptr %27, align 8
  invoke void %28(ptr noundef nonnull align 8 dereferenceable(60) %20, ptr noundef nonnull align 8 dereferenceable(64) %24, ptr noundef nonnull align 8 dereferenceable(112) %8, ptr noundef nonnull align 8 dereferenceable(16) %25)
          to label %29 unwind label %66

29:                                               ; preds = %23
  %30 = load ptr, ptr %7, align 8, !tbaa !98
  %31 = invoke noundef i32 @_ZNK6icu_7713ParsePosition8getIndexEv(ptr noundef nonnull align 8 dereferenceable(16) %30)
          to label %32 unwind label %66

32:                                               ; preds = %29
  %33 = load i32, ptr %9, align 4, !tbaa !14
  %34 = icmp ne i32 %31, %33
  br i1 %34, label %35, label %107

35:                                               ; preds = %32
  call void @llvm.lifetime.start.p0(i64 8, ptr %12) #15
  call void @llvm.lifetime.start.p0(i64 4, ptr %13) #15
  store i32 0, ptr %13, align 4, !tbaa !15
  %36 = getelementptr inbounds [4 x i16], ptr %12, i64 0, i64 0
  %37 = load ptr, ptr %20, align 8, !tbaa !30
  %38 = getelementptr inbounds ptr, ptr %37, i64 36
  %39 = load ptr, ptr %38, align 8
  invoke void %39(ptr noundef nonnull align 8 dereferenceable(60) %20, ptr noundef %36, ptr noundef nonnull align 4 dereferenceable(4) %13)
          to label %40 unwind label %70

40:                                               ; preds = %35
  %41 = load i32, ptr %13, align 4, !tbaa !15
  %42 = invoke noundef signext i8 @_ZL9U_SUCCESS10UErrorCode(i32 noundef %41)
          to label %43 unwind label %70

43:                                               ; preds = %40
  %44 = icmp ne i8 %42, 0
  br i1 %44, label %45, label %102

45:                                               ; preds = %43
  call void @llvm.lifetime.start.p0(i64 8, ptr %14) #15
  %46 = call noundef ptr @_ZN6icu_777UMemorynwEm(i64 noundef 128) #15
  %47 = icmp eq ptr %46, null
  store i1 false, ptr %16, align 1
  store i1 false, ptr %18, align 1
  br i1 %47, label %52, label %48

48:                                               ; preds = %45
  store ptr %46, ptr %15, align 8
  store i1 true, ptr %16, align 1
  %49 = getelementptr inbounds [4 x i16], ptr %12, i64 0, i64 0
  invoke void @_ZN6icu_7714ConstChar16PtrC2EPKDs(ptr noundef nonnull align 8 dereferenceable(8) %17, ptr noundef %49)
          to label %50 unwind label %74

50:                                               ; preds = %48
  store i1 true, ptr %18, align 1
  invoke void @_ZN6icu_7714CurrencyAmountC1ERKNS_11FormattableENS_14ConstChar16PtrER10UErrorCode(ptr noundef nonnull align 8 dereferenceable(128) %46, ptr noundef nonnull align 8 dereferenceable(112) %8, ptr noundef %17, ptr noundef nonnull align 4 dereferenceable(4) %13)
          to label %51 unwind label %78

51:                                               ; preds = %50
  store i1 false, ptr %16, align 1
  br label %52

52:                                               ; preds = %51, %45
  %53 = phi ptr [ %46, %51 ], [ null, %45 ]
  invoke void @_ZN6icu_7712LocalPointerINS_14CurrencyAmountEEC2EPS1_R10UErrorCode(ptr noundef nonnull align 8 dereferenceable(8) %14, ptr noundef %53, ptr noundef nonnull align 4 dereferenceable(4) %13)
          to label %54 unwind label %78

54:                                               ; preds = %52
  %55 = load i1, ptr %18, align 1
  br i1 %55, label %56, label %57

56:                                               ; preds = %54
  call void @_ZN6icu_7714ConstChar16PtrD2Ev(ptr noundef nonnull align 8 dereferenceable(8) %17) #15
  br label %57

57:                                               ; preds = %56, %54
  %58 = load i32, ptr %13, align 4, !tbaa !15
  %59 = invoke noundef signext i8 @_ZL9U_FAILURE10UErrorCode(i32 noundef %58)
          to label %60 unwind label %90

60:                                               ; preds = %57
  %61 = icmp ne i8 %59, 0
  br i1 %61, label %62, label %94

62:                                               ; preds = %60
  %63 = load ptr, ptr %7, align 8, !tbaa !98
  %64 = load i32, ptr %9, align 4, !tbaa !14
  invoke void @_ZN6icu_7713ParsePosition8setIndexEi(ptr noundef nonnull align 8 dereferenceable(16) %63, i32 noundef %64)
          to label %65 unwind label %90

65:                                               ; preds = %62
  br label %97

66:                                               ; preds = %29, %23, %3
  %67 = landingpad { ptr, i32 }
          cleanup
  %68 = extractvalue { ptr, i32 } %67, 0
  store ptr %68, ptr %10, align 8
  %69 = extractvalue { ptr, i32 } %67, 1
  store i32 %69, ptr %11, align 4
  br label %110

70:                                               ; preds = %40, %35
  %71 = landingpad { ptr, i32 }
          cleanup
  %72 = extractvalue { ptr, i32 } %71, 0
  store ptr %72, ptr %10, align 8
  %73 = extractvalue { ptr, i32 } %71, 1
  store i32 %73, ptr %11, align 4
  br label %106

74:                                               ; preds = %48
  %75 = landingpad { ptr, i32 }
          cleanup
  %76 = extractvalue { ptr, i32 } %75, 0
  store ptr %76, ptr %10, align 8
  %77 = extractvalue { ptr, i32 } %75, 1
  store i32 %77, ptr %11, align 4
  br label %85

78:                                               ; preds = %52, %50
  %79 = landingpad { ptr, i32 }
          cleanup
  %80 = extractvalue { ptr, i32 } %79, 0
  store ptr %80, ptr %10, align 8
  %81 = extractvalue { ptr, i32 } %79, 1
  store i32 %81, ptr %11, align 4
  %82 = load i1, ptr %18, align 1
  br i1 %82, label %83, label %84

83:                                               ; preds = %78
  call void @_ZN6icu_7714ConstChar16PtrD2Ev(ptr noundef nonnull align 8 dereferenceable(8) %17) #15
  br label %84

84:                                               ; preds = %83, %78
  br label %85

85:                                               ; preds = %84, %74
  %86 = load i1, ptr %16, align 1
  br i1 %86, label %87, label %89

87:                                               ; preds = %85
  %88 = load ptr, ptr %15, align 8
  call void @_ZN6icu_777UMemorydlEPv(ptr noundef %88) #15
  br label %89

89:                                               ; preds = %87, %85
  br label %101

90:                                               ; preds = %94, %62, %57
  %91 = landingpad { ptr, i32 }
          cleanup
  %92 = extractvalue { ptr, i32 } %91, 0
  store ptr %92, ptr %10, align 8
  %93 = extractvalue { ptr, i32 } %91, 1
  store i32 %93, ptr %11, align 4
  call void @_ZN6icu_7712LocalPointerINS_14CurrencyAmountEED2Ev(ptr noundef nonnull align 8 dereferenceable(8) %14) #15
  br label %101

94:                                               ; preds = %60
  %95 = invoke noundef ptr @_ZN6icu_7716LocalPointerBaseINS_14CurrencyAmountEE6orphanEv(ptr noundef nonnull align 8 dereferenceable(8) %14)
          to label %96 unwind label %90

96:                                               ; preds = %94
  store ptr %95, ptr %4, align 8
  store i32 1, ptr %19, align 4
  br label %98

97:                                               ; preds = %65
  store i32 0, ptr %19, align 4
  br label %98

98:                                               ; preds = %97, %96
  call void @_ZN6icu_7712LocalPointerINS_14CurrencyAmountEED2Ev(ptr noundef nonnull align 8 dereferenceable(8) %14) #15
  call void @llvm.lifetime.end.p0(i64 8, ptr %14) #15
  %99 = load i32, ptr %19, align 4
  switch i32 %99, label %103 [
    i32 0, label %100
  ]

100:                                              ; preds = %98
  br label %102

101:                                              ; preds = %90, %89
  call void @llvm.lifetime.end.p0(i64 8, ptr %14) #15
  br label %106

102:                                              ; preds = %100, %43
  store i32 0, ptr %19, align 4
  br label %103

103:                                              ; preds = %102, %98
  call void @llvm.lifetime.end.p0(i64 4, ptr %13) #15
  call void @llvm.lifetime.end.p0(i64 8, ptr %12) #15
  %104 = load i32, ptr %19, align 4
  switch i32 %104, label %108 [
    i32 0, label %105
  ]

105:                                              ; preds = %103
  br label %107

106:                                              ; preds = %101, %70
  call void @llvm.lifetime.end.p0(i64 4, ptr %13) #15
  call void @llvm.lifetime.end.p0(i64 8, ptr %12) #15
  br label %110

107:                                              ; preds = %105, %32
  store ptr null, ptr %4, align 8
  store i32 1, ptr %19, align 4
  br label %108

108:                                              ; preds = %107, %103
  call void @llvm.lifetime.end.p0(i64 4, ptr %9) #15
  call void @_ZN6icu_7711FormattableD1Ev(ptr noundef nonnull align 8 dereferenceable(112) %8) #15
  call void @llvm.lifetime.end.p0(i64 112, ptr %8) #15
  %109 = load ptr, ptr %4, align 8
  ret ptr %109

110:                                              ; preds = %106, %66
  call void @llvm.lifetime.end.p0(i64 4, ptr %9) #15
  call void @_ZN6icu_7711FormattableD1Ev(ptr noundef nonnull align 8 dereferenceable(112) %8) #15
  call void @llvm.lifetime.end.p0(i64 112, ptr %8) #15
  br label %111

111:                                              ; preds = %110
  %112 = load ptr, ptr %10, align 8
  %113 = load i32, ptr %11, align 4
  %114 = insertvalue { ptr, i32 } poison, ptr %112, 0
  %115 = insertvalue { ptr, i32 } %114, i32 %113, 1
  resume { ptr, i32 } %115
}