; Function Attrs: mustprogress uwtable
define noundef ptr @_ZNK6icu_7712NumberFormat13parseCurrencyERKNS_13UnicodeStringERNS_13ParsePositionE(ptr noundef nonnull align 8 dereferenceable(60) %0, ptr noundef nonnull align 8 dereferenceable(64) %1, ptr noundef nonnull align 8 dereferenceable(16) %2) unnamed_addr #1 align 2 personality ptr @__gxx_personality_v0 {
  %4 = alloca %"class.icu_77::Formattable", align 8
  %5 = alloca [4 x i16], align 2
  %6 = alloca i32, align 4
  %7 = alloca %"class.icu_77::ConstChar16Ptr", align 8
  call void @llvm.lifetime.start.p0(i64 112, ptr nonnull %4) #22
  call void @_ZN6icu_7711FormattableC1Ev(ptr noundef nonnull align 8 dereferenceable(112) %4)
  %8 = getelementptr inbounds nuw i8, ptr %2, i64 8
  %9 = load i32, ptr %8, align 8, !tbaa !57
  %10 = load ptr, ptr %0, align 8, !tbaa !15
  %11 = getelementptr inbounds nuw i8, ptr %10, i64 160
  %12 = load ptr, ptr %11, align 8
  invoke void %12(ptr noundef nonnull align 8 dereferenceable(60) %0, ptr noundef nonnull align 8 dereferenceable(64) %1, ptr noundef nonnull align 8 dereferenceable(112) %4, ptr noundef nonnull align 8 dereferenceable(16) %2)
          to label %13 unwind label %27

13:                                               ; preds = %3
  %14 = load i32, ptr %8, align 8, !tbaa !57
  %.not = icmp eq i32 %14, %9
  br i1 %.not, label %39, label %15

15:                                               ; preds = %13
  call void @llvm.lifetime.start.p0(i64 8, ptr nonnull %5) #22
  call void @llvm.lifetime.start.p0(i64 4, ptr nonnull %6) #22
  store i32 0, ptr %6, align 4, !tbaa !13
  %16 = load ptr, ptr %0, align 8, !tbaa !15
  %17 = getelementptr inbounds nuw i8, ptr %16, i64 288
  %18 = load ptr, ptr %17, align 8
  invoke void %18(ptr noundef nonnull align 8 dereferenceable(60) %0, ptr noundef nonnull %5, ptr noundef nonnull align 4 dereferenceable(4) %6)
          to label %19 unwind label %29

19:                                               ; preds = %15
  %20 = load i32, ptr %6, align 4, !tbaa !13
  %21 = icmp sgt i32 %20, 0
  br i1 %21, label %.sink.split, label %22

22:                                               ; preds = %19
  %23 = call noundef ptr @_ZN6icu_777UMemorynwEm(i64 noundef 128) #22
  %.not44 = icmp eq ptr %23, null
  br i1 %.not44, label %.thread, label %24

24:                                               ; preds = %22
  store ptr %5, ptr %7, align 8, !tbaa !60
  invoke void @_ZN6icu_7714CurrencyAmountC1ERKNS_11FormattableENS_14ConstChar16PtrER10UErrorCode(ptr noundef nonnull align 8 dereferenceable(128) %23, ptr noundef nonnull align 8 dereferenceable(112) %4, ptr noundef nonnull %7, ptr noundef nonnull align 4 dereferenceable(4) %6)
          to label %_ZN6icu_7712LocalPointerINS_14CurrencyAmountEEC2EPS1_R10UErrorCode.exit.thread unwind label %35

.thread:                                          ; preds = %22
  store i32 %9, ptr %8, align 8, !tbaa !57
  br label %.sink.split

_ZN6icu_7712LocalPointerINS_14CurrencyAmountEEC2EPS1_R10UErrorCode.exit.thread: ; preds = %24
  %25 = load ptr, ptr %7, align 8, !tbaa !60
  call void asm sideeffect "", "rm,~{memory},~{dirflag},~{fpsr},~{flags}"(ptr %25) #22, !srcloc !63
  %.pre = load i32, ptr %6, align 4, !tbaa !13
  %26 = icmp slt i32 %.pre, 1
  br i1 %26, label %.sink.split, label %31

27:                                               ; preds = %3
  %28 = landingpad { ptr, i32 }
          cleanup
  br label %40

29:                                               ; preds = %15
  %30 = landingpad { ptr, i32 }
          cleanup
  br label %38

31:                                               ; preds = %_ZN6icu_7712LocalPointerINS_14CurrencyAmountEEC2EPS1_R10UErrorCode.exit.thread
  store i32 %9, ptr %8, align 8, !tbaa !57
  %32 = load ptr, ptr %23, align 8, !tbaa !15
  %33 = getelementptr inbounds nuw i8, ptr %32, i64 8
  %34 = load ptr, ptr %33, align 8
  call void %34(ptr noundef nonnull align 8 dereferenceable(128) %23) #22
  br label %.sink.split

35:                                               ; preds = %24
  %36 = landingpad { ptr, i32 }
          cleanup
  %37 = load ptr, ptr %7, align 8, !tbaa !60
  call void asm sideeffect "", "rm,~{memory},~{dirflag},~{fpsr},~{flags}"(ptr %37) #22, !srcloc !63
  call void @_ZN6icu_777UMemorydlEPv(ptr noundef nonnull %23) #22
  br label %38

38:                                               ; preds = %35, %29
  %.pn = phi { ptr, i32 } [ %36, %35 ], [ %30, %29 ]
  call void @llvm.lifetime.end.p0(i64 4, ptr nonnull %6) #22
  call void @llvm.lifetime.end.p0(i64 8, ptr nonnull %5) #22
  br label %40

.sink.split:                                      ; preds = %_ZN6icu_7712LocalPointerINS_14CurrencyAmountEEC2EPS1_R10UErrorCode.exit.thread, %31, %.thread, %19
  %.3.ph = phi ptr [ null, %19 ], [ null, %.thread ], [ null, %31 ], [ %23, %_ZN6icu_7712LocalPointerINS_14CurrencyAmountEEC2EPS1_R10UErrorCode.exit.thread ]
  call void @llvm.lifetime.end.p0(i64 4, ptr nonnull %6) #22
  call void @llvm.lifetime.end.p0(i64 8, ptr nonnull %5) #22
  br label %39

39:                                               ; preds = %.sink.split, %13
  %.3 = phi ptr [ null, %13 ], [ %.3.ph, %.sink.split ]
  call void @_ZN6icu_7711FormattableD1Ev(ptr noundef nonnull align 8 dereferenceable(112) %4) #22
  call void @llvm.lifetime.end.p0(i64 112, ptr nonnull %4) #22
  ret ptr %.3

40:                                               ; preds = %38, %27
  %.pn.pn = phi { ptr, i32 } [ %.pn, %38 ], [ %28, %27 ]
  call void @_ZN6icu_7711FormattableD1Ev(ptr noundef nonnull align 8 dereferenceable(112) %4) #22
  call void @llvm.lifetime.end.p0(i64 112, ptr nonnull %4) #22
  resume { ptr, i32 } %.pn.pn
}